target datalayout = "e-m:e-p270:32:32-p271:32:32-p272:64:64-i64:64-i128:128-f80:128-n8:16:32:64-S128"
target triple = "x86_64-unknown-linux-gnu"

%"class.std::__cxx11::basic_string" = type { %"struct.std::__cxx11::basic_string<char>::_Alloc_hider", i64, %union.anon }
%"struct.std::__cxx11::basic_string<char>::_Alloc_hider" = type { ptr }
%union.anon = type { i64, [8 x i8] }
%"class.rocksdb::InternalKeyComparator" = type { %"class.rocksdb::CompareInterface", %"class.rocksdb::UserComparatorWrapper" }
%"class.rocksdb::CompareInterface" = type { ptr }
%"class.rocksdb::UserComparatorWrapper" = type { ptr }
%"class.rocksdb::ColumnFamilyData" = type { i32, %"class.std::__cxx11::basic_string", ptr, ptr, %"struct.std::atomic", %"struct.std::atomic.3", %"struct.std::atomic.3", %"class.rocksdb::InternalKeyComparator", %"class.std::vector.5", %"struct.rocksdb::ColumnFamilyOptions", %"struct.rocksdb::ImmutableOptions", %"struct.rocksdb::MutableCFOptions", i8, %"class.std::unique_ptr", %"class.std::unique_ptr.92", %"class.std::unique_ptr.100", %"class.std::unique_ptr.108", ptr, ptr, %"class.rocksdb::MemTableList", ptr, %"struct.std::atomic.116", %"class.std::unique_ptr.118", ptr, ptr, i64, %"class.std::unique_ptr.126", ptr, %"class.std::unique_ptr.134", i8, i8, i64, i8, %"struct.std::atomic.116", %"class.std::vector.142", i8, %"class.std::__cxx11::basic_string", %"class.std::shared_ptr.147", i8, %"struct.std::atomic.116" }
%"struct.std::atomic" = type { %"struct.std::__atomic_base" }
%"struct.std::__atomic_base" = type { i32 }
%"struct.std::atomic.3" = type { %"struct.std::__atomic_base.4" }
%"struct.std::__atomic_base.4" = type { i8 }
%"class.std::vector.5" = type { %"struct.std::_Vector_base.6" }
%"struct.std::_Vector_base.6" = type { %"struct.std::_Vector_base<std::unique_ptr<rocksdb::IntTblPropCollectorFactory>, std::allocator<std::unique_ptr<rocksdb::IntTblPropCollectorFactory>>>::_Vector_impl" }
%"struct.std::_Vector_base<std::unique_ptr<rocksdb::IntTblPropCollectorFactory>, std::allocator<std::unique_ptr<rocksdb::IntTblPropCollectorFactory>>>::_Vector_impl" = type { %"struct.std::_Vector_base<std::unique_ptr<rocksdb::IntTblPropCollectorFactory>, std::allocator<std::unique_ptr<rocksdb::IntTblPropCollectorFactory>>>::_Vector_impl_data" }
%"struct.std::_Vector_base<std::unique_ptr<rocksdb::IntTblPropCollectorFactory>, std::allocator<std::unique_ptr<rocksdb::IntTblPropCollectorFactory>>>::_Vector_impl_data" = type { ptr, ptr, ptr }
%"struct.rocksdb::ColumnFamilyOptions" = type <{ %"struct.rocksdb::AdvancedColumnFamilyOptions", ptr, %"class.std::shared_ptr.36", ptr, %"class.std::shared_ptr.39", i64, i8, i8, [6 x i8], %"struct.rocksdb::CompressionOptions", %"struct.rocksdb::CompressionOptions", i32, [4 x i8], %"class.std::shared_ptr", i64, i64, i8, [7 x i8], %"class.std::shared_ptr.42", %"class.std::vector.45", %"class.std::shared_ptr.50", %"class.std::shared_ptr.53", i32, [4 x i8] }>
%"struct.rocksdb::AdvancedColumnFamilyOptions" = type { i32, i32, i32, i64, i8, i64, double, ptr, double, i8, i64, %"class.std::shared_ptr", i32, i64, %"class.std::vector.10", i32, i32, i32, i64, i32, i8, i8, double, %"class.std::vector.15", i64, i8, i64, i64, i8, i8, [2 x i8], %"class.rocksdb::CompactionOptionsUniversal", %"struct.rocksdb::CompactionOptionsFIFO", i64, %"class.std::shared_ptr.25", %"class.std::vector.28", i64, i8, i8, i8, i8, i8, i64, i64, i64, i8, i8, i8, i64, i64, i8, i64, i64, i8, i8, double, double, i64, i32, %"class.std::shared_ptr.33", i8, i32, i8, i8, i32 }
%"class.std::vector.10" = type { %"struct.std::_Vector_base.11" }
%"struct.std::_Vector_base.11" = type { %"struct.std::_Vector_base<rocksdb::CompressionType, std::allocator<rocksdb::CompressionType>>::_Vector_impl" }
%"struct.std::_Vector_base<rocksdb::CompressionType, std::allocator<rocksdb::CompressionType>>::_Vector_impl" = type { %"struct.std::_Vector_base<rocksdb::CompressionType, std::allocator<rocksdb::CompressionType>>::_Vector_impl_data" }
%"struct.std::_Vector_base<rocksdb::CompressionType, std::allocator<rocksdb::CompressionType>>::_Vector_impl_data" = type { ptr, ptr, ptr }
%"class.std::vector.15" = type { %"struct.std::_Vector_base.16" }
%"struct.std::_Vector_base.16" = type { %"struct.std::_Vector_base<int, std::allocator<int>>::_Vector_impl" }
%"struct.std::_Vector_base<int, std::allocator<int>>::_Vector_impl" = type { %"struct.std::_Vector_base<int, std::allocator<int>>::_Vector_impl_data" }
%"struct.std::_Vector_base<int, std::allocator<int>>::_Vector_impl_data" = type { ptr, ptr, ptr }
%"class.rocksdb::CompactionOptionsUniversal" = type <{ i32, i32, i32, i32, i32, i32, i8, i8, [2 x i8] }>
%"struct.rocksdb::CompactionOptionsFIFO" = type { i64, i8, i64, %"class.std::vector.20" }
%"class.std::vector.20" = type { %"struct.std::_Vector_base.21" }
%"struct.std::_Vector_base.21" = type { %"struct.std::_Vector_base<rocksdb::FileTemperatureAge, std::allocator<rocksdb::FileTemperatureAge>>::_Vector_impl" }
%"struct.std::_Vector_base<rocksdb::FileTemperatureAge, std::allocator<rocksdb::FileTemperatureAge>>::_Vector_impl" = type { %"struct.std::_Vector_base<rocksdb::FileTemperatureAge, std::allocator<rocksdb::FileTemperatureAge>>::_Vector_impl_data" }
%"struct.std::_Vector_base<rocksdb::FileTemperatureAge, std::allocator<rocksdb::FileTemperatureAge>>::_Vector_impl_data" = type { ptr, ptr, ptr }
%"class.std::shared_ptr.25" = type { %"class.std::__shared_ptr.26" }
%"class.std::__shared_ptr.26" = type { ptr, %"class.std::__shared_count" }
%"class.std::__shared_count" = type { ptr }
%"class.std::vector.28" = type { %"struct.std::_Vector_base.29" }
%"struct.std::_Vector_base.29" = type { %"struct.std::_Vector_base<std::shared_ptr<rocksdb::TablePropertiesCollectorFactory>, std::allocator<std::shared_ptr<rocksdb::TablePropertiesCollectorFactory>>>::_Vector_impl" }
%"struct.std::_Vector_base<std::shared_ptr<rocksdb::TablePropertiesCollectorFactory>, std::allocator<std::shared_ptr<rocksdb::TablePropertiesCollectorFactory>>>::_Vector_impl" = type { %"struct.std::_Vector_base<std::shared_ptr<rocksdb::TablePropertiesCollectorFactory>, std::allocator<std::shared_ptr<rocksdb::TablePropertiesCollectorFactory>>>::_Vector_impl_data" }
%"struct.std::_Vector_base<std::shared_ptr<rocksdb::TablePropertiesCollectorFactory>, std::allocator<std::shared_ptr<rocksdb::TablePropertiesCollectorFactory>>>::_Vector_impl_data" = type { ptr, ptr, ptr }
%"class.std::shared_ptr.33" = type { %"class.std::__shared_ptr.34" }
%"class.std::__shared_ptr.34" = type { ptr, %"class.std::__shared_count" }
%"class.std::shared_ptr.36" = type { %"class.std::__shared_ptr.37" }
%"class.std::__shared_ptr.37" = type { ptr, %"class.std::__shared_count" }
%"class.std::shared_ptr.39" = type { %"class.std::__shared_ptr.40" }
%"class.std::__shared_ptr.40" = type { ptr, %"class.std::__shared_count" }
%"struct.rocksdb::CompressionOptions" = type <{ i32, i32, i32, i32, i32, i32, i8, [7 x i8], i64, i8, [3 x i8], i32, i8, [7 x i8] }>
%"class.std::shared_ptr" = type { %"class.std::__shared_ptr" }
%"class.std::__shared_ptr" = type { ptr, %"class.std::__shared_count" }
%"class.std::shared_ptr.42" = type { %"class.std::__shared_ptr.43" }
%"class.std::__shared_ptr.43" = type { ptr, %"class.std::__shared_count" }
%"class.std::vector.45" = type { %"struct.std::_Vector_base.46" }
%"struct.std::_Vector_base.46" = type { %"struct.std::_Vector_base<rocksdb::DbPath, std::allocator<rocksdb::DbPath>>::_Vector_impl" }
%"struct.std::_Vector_base<rocksdb::DbPath, std::allocator<rocksdb::DbPath>>::_Vector_impl" = type { %"struct.std::_Vector_base<rocksdb::DbPath, std::allocator<rocksdb::DbPath>>::_Vector_impl_data" }
%"struct.std::_Vector_base<rocksdb::DbPath, std::allocator<rocksdb::DbPath>>::_Vector_impl_data" = type { ptr, ptr, ptr }
%"class.std::shared_ptr.50" = type { %"class.std::__shared_ptr.51" }
%"class.std::__shared_ptr.51" = type { ptr, %"class.std::__shared_count" }
%"class.std::shared_ptr.53" = type { %"class.std::__shared_ptr.54" }
%"class.std::__shared_ptr.54" = type { ptr, %"class.std::__shared_count" }
%"struct.rocksdb::ImmutableOptions" = type { %"struct.rocksdb::ImmutableDBOptions.base", [7 x i8], %"struct.rocksdb::ImmutableCFOptions.base", [7 x i8] }
%"struct.rocksdb::ImmutableDBOptions.base" = type <{ i8, i8, i8, i8, i8, i8, i8, i8, ptr, %"class.std::shared_ptr.56", %"class.std::shared_ptr.59", %"class.std::shared_ptr.62", i8, [3 x i8], i32, %"class.std::shared_ptr.65", i8, [7 x i8], %"class.std::vector.45", %"class.std::__cxx11::basic_string", %"class.std::__cxx11::basic_string", i64, i64, i64, i64, i64, i32, [4 x i8], i64, i64, i64, i64, i8, i8, i8, i8, i8, i8, i8, i8, i64, %"class.std::shared_ptr.68", i32, [4 x i8], i64, i8, [7 x i8], %"class.std::vector.71", i8, i8, i8, i8, i8, [3 x i8], i64, i64, i8, i8, i8, i8, [4 x i8], %"class.std::shared_ptr.33", ptr, i8, i8, i8, i8, i8, i8, i8, i8, i8, i8, i8, [5 x i8], i64, %"class.std::shared_ptr.76", i8, [3 x i8], i32, i64, i8, [7 x i8], %"class.std::__cxx11::basic_string", %"class.rocksdb::SmallEnumSet", i8, [7 x i8], %"class.std::shared_ptr.79", ptr, ptr, ptr, %"class.std::shared_ptr.82", i8 }>
%"class.std::shared_ptr.56" = type { %"class.std::__shared_ptr.57" }
%"class.std::__shared_ptr.57" = type { ptr, %"class.std::__shared_count" }
%"class.std::shared_ptr.59" = type { %"class.std::__shared_ptr.60" }
%"class.std::__shared_ptr.60" = type { ptr, %"class.std::__shared_count" }
%"class.std::shared_ptr.62" = type { %"class.std::__shared_ptr.63" }
%"class.std::__shared_ptr.63" = type { ptr, %"class.std::__shared_count" }
%"class.std::shared_ptr.65" = type { %"class.std::__shared_ptr.66" }
%"class.std::__shared_ptr.66" = type { ptr, %"class.std::__shared_count" }
%"class.std::shared_ptr.68" = type { %"class.std::__shared_ptr.69" }
%"class.std::__shared_ptr.69" = type { ptr, %"class.std::__shared_count" }
%"class.std::vector.71" = type { %"struct.std::_Vector_base.72" }
%"struct.std::_Vector_base.72" = type { %"struct.std::_Vector_base<std::shared_ptr<rocksdb::EventListener>, std::allocator<std::shared_ptr<rocksdb::EventListener>>>::_Vector_impl" }
%"struct.std::_Vector_base<std::shared_ptr<rocksdb::EventListener>, std::allocator<std::shared_ptr<rocksdb::EventListener>>>::_Vector_impl" = type { %"struct.std::_Vector_base<std::shared_ptr<rocksdb::EventListener>, std::allocator<std::shared_ptr<rocksdb::EventListener>>>::_Vector_impl_data" }
%"struct.std::_Vector_base<std::shared_ptr<rocksdb::EventListener>, std::allocator<std::shared_ptr<rocksdb::EventListener>>>::_Vector_impl_data" = type { ptr, ptr, ptr }
%"class.std::shared_ptr.76" = type { %"class.std::__shared_ptr.77" }
%"class.std::__shared_ptr.77" = type { ptr, %"class.std::__shared_count" }
%"class.rocksdb::SmallEnumSet" = type { i64 }
%"class.std::shared_ptr.79" = type { %"class.std::__shared_ptr.80" }
%"class.std::__shared_ptr.80" = type { ptr, %"class.std::__shared_count" }
%"class.std::shared_ptr.82" = type { %"class.std::__shared_ptr.83" }
%"class.std::__shared_ptr.83" = type { ptr, %"class.std::__shared_count" }
%"struct.rocksdb::ImmutableCFOptions.base" = type <{ i8, i8, [6 x i8], ptr, %"class.rocksdb::InternalKeyComparator", %"class.std::shared_ptr.36", ptr, %"class.std::shared_ptr.39", i32, i32, i64, i8, [7 x i8], ptr, %"class.std::shared_ptr.25", %"class.std::shared_ptr.42", %"class.std::vector.28", i32, i8, i8, [2 x i8], i32, i8, i8, i8, i8, i64, i64, %"class.std::shared_ptr", %"class.std::vector.45", %"class.std::shared_ptr.50", %"class.std::shared_ptr.53", %"class.std::shared_ptr.33", i8 }>
%"struct.rocksdb::MutableCFOptions" = type { i64, i32, i64, double, i8, i64, i64, i64, %"class.std::shared_ptr", double, i8, i64, i64, i32, i32, i32, i64, i8, i64, i32, i64, double, i64, i64, %"class.std::vector.15", %"struct.rocksdb::CompactionOptionsFIFO", %"class.rocksdb::CompactionOptionsUniversal", i8, i64, i64, i8, i8, double, double, i64, i32, i8, i64, i8, i8, i8, i8, i8, [3 x i8], %"struct.rocksdb::CompressionOptions", %"struct.rocksdb::CompressionOptions", i8, i32, i8, i64, %"class.std::vector.10", i32, i32, %"class.std::vector.85" }
%"class.std::vector.85" = type { %"struct.std::_Vector_base.86" }
%"struct.std::_Vector_base.86" = type { %"struct.std::_Vector_base<unsigned long, std::allocator<unsigned long>>::_Vector_impl" }
%"struct.std::_Vector_base<unsigned long, std::allocator<unsigned long>>::_Vector_impl" = type { %"struct.std::_Vector_base<unsigned long, std::allocator<unsigned long>>::_Vector_impl_data" }
%"struct.std::_Vector_base<unsigned long, std::allocator<unsigned long>>::_Vector_impl_data" = type { ptr, ptr, ptr }
%"class.std::unique_ptr" = type { %"struct.std::__uniq_ptr_data" }
%"struct.std::__uniq_ptr_data" = type { %"class.std::__uniq_ptr_impl" }
%"class.std::__uniq_ptr_impl" = type { %"class.std::tuple" }
%"class.std::tuple" = type { %"struct.std::_Tuple_impl" }
%"struct.std::_Tuple_impl" = type { %"struct.std::_Head_base.91" }
%"struct.std::_Head_base.91" = type { ptr }
%"class.std::unique_ptr.92" = type { %"struct.std::__uniq_ptr_data.93" }
%"struct.std::__uniq_ptr_data.93" = type { %"class.std::__uniq_ptr_impl.94" }
%"class.std::__uniq_ptr_impl.94" = type { %"class.std::tuple.95" }
%"class.std::tuple.95" = type { %"struct.std::_Tuple_impl.96" }
%"struct.std::_Tuple_impl.96" = type { %"struct.std::_Head_base.99" }
%"struct.std::_Head_base.99" = type { ptr }
%"class.std::unique_ptr.100" = type { %"struct.std::__uniq_ptr_data.101" }
%"struct.std::__uniq_ptr_data.101" = type { %"class.std::__uniq_ptr_impl.102" }
%"class.std::__uniq_ptr_impl.102" = type { %"class.std::tuple.103" }
%"class.std::tuple.103" = type { %"struct.std::_Tuple_impl.104" }
%"struct.std::_Tuple_impl.104" = type { %"struct.std::_Head_base.107" }
%"struct.std::_Head_base.107" = type { ptr }
%"class.std::unique_ptr.108" = type { %"struct.std::__uniq_ptr_data.109" }
%"struct.std::__uniq_ptr_data.109" = type { %"class.std::__uniq_ptr_impl.110" }
%"class.std::__uniq_ptr_impl.110" = type { %"class.std::tuple.111" }
%"class.std::tuple.111" = type { %"struct.std::_Tuple_impl.112" }
%"struct.std::_Tuple_impl.112" = type { %"struct.std::_Head_base.115" }
%"struct.std::_Head_base.115" = type { ptr }
%"class.rocksdb::MemTableList" = type <{ %"struct.std::atomic.3", %"struct.std::atomic.3", [2 x i8], i32, ptr, i32, i8, i8, [2 x i8], i64, %"struct.std::atomic.116", %"struct.std::atomic.3", [7 x i8] }>
%"class.std::unique_ptr.118" = type { %"struct.std::__uniq_ptr_data.119" }
%"struct.std::__uniq_ptr_data.119" = type { %"class.std::__uniq_ptr_impl.120" }
%"class.std::__uniq_ptr_impl.120" = type { %"class.std::tuple.121" }
%"class.std::tuple.121" = type { %"struct.std::_Tuple_impl.122" }
%"struct.std::_Tuple_impl.122" = type { %"struct.std::_Head_base.125" }
%"struct.std::_Head_base.125" = type { ptr }
%"class.std::unique_ptr.126" = type { %"struct.std::__uniq_ptr_data.127" }
%"struct.std::__uniq_ptr_data.127" = type { %"class.std::__uniq_ptr_impl.128" }
%"class.std::__uniq_ptr_impl.128" = type { %"class.std::tuple.129" }
%"class.std::tuple.129" = type { %"struct.std::_Tuple_impl.130" }
%"struct.std::_Tuple_impl.130" = type { %"struct.std::_Head_base.133" }
%"struct.std::_Head_base.133" = type { ptr }
%"class.std::unique_ptr.134" = type { %"struct.std::__uniq_ptr_data.135" }
%"struct.std::__uniq_ptr_data.135" = type { %"class.std::__uniq_ptr_impl.136" }
%"class.std::__uniq_ptr_impl.136" = type { %"class.std::tuple.137" }
%"class.std::tuple.137" = type { %"struct.std::_Tuple_impl.138" }
%"struct.std::_Tuple_impl.138" = type { %"struct.std::_Head_base.141" }
%"struct.std::_Head_base.141" = type { ptr }
%"class.std::vector.142" = type { %"struct.std::_Vector_base.143" }
%"struct.std::_Vector_base.143" = type { %"struct.std::_Vector_base<std::shared_ptr<rocksdb::FSDirectory>, std::allocator<std::shared_ptr<rocksdb::FSDirectory>>>::_Vector_impl" }
%"struct.std::_Vector_base<std::shared_ptr<rocksdb::FSDirectory>, std::allocator<std::shared_ptr<rocksdb::FSDirectory>>>::_Vector_impl" = type { %"struct.std::_Vector_base<std::shared_ptr<rocksdb::FSDirectory>, std::allocator<std::shared_ptr<rocksdb::FSDirectory>>>::_Vector_impl_data" }
%"struct.std::_Vector_base<std::shared_ptr<rocksdb::FSDirectory>, std::allocator<std::shared_ptr<rocksdb::FSDirectory>>>::_Vector_impl_data" = type { ptr, ptr, ptr }
%"class.std::shared_ptr.147" = type { %"class.std::__shared_ptr.148" }
%"class.std::__shared_ptr.148" = type { ptr, %"class.std::__shared_count" }
%"struct.std::atomic.116" = type { %"struct.std::__atomic_base.117" }
%"struct.std::__atomic_base.117" = type { i64 }

; Function Attrs: mustprogress nounwind uwtable
define linkonce_odr noundef ptr @_ZNK7rocksdb16ColumnFamilyData8ioptionsEv(ptr noundef nonnull align 8 dereferenceable(2656) %this) #1 comdat align 2 {
entry:
  %this.addr = alloca ptr, align 8
  store ptr %this, ptr %this.addr, align 8
  %this1 = load ptr, ptr %this.addr, align 8
  %ioptions_ = getelementptr inbounds %"class.rocksdb::ColumnFamilyData", ptr %this1, i32 0, i32 10
  ret ptr %ioptions_
}

; Function Attrs: mustprogress nounwind uwtable
define linkonce_odr noundef ptr @_ZN7rocksdb22static_cast_with_checkINS_22ColumnFamilyHandleImplENS_18ColumnFamilyHandleEEEPT_PT0_(ptr noundef %x) #1 comdat {
entry:
  %x.addr = alloca ptr, align 8
  %ret = alloca ptr, align 8
  store ptr %x, ptr %x.addr, align 8
  %0 = load ptr, ptr %x.addr, align 8
  store ptr %0, ptr %ret, align 8
  %1 = load ptr, ptr %ret, align 8
  ret ptr %1
}

; Function Attrs: mustprogress uwtable
define noundef nonnull align 8 dereferenceable(857) ptr @_ZN7rocksdb19GetImmutableOptionsEPNS_18ColumnFamilyHandleE(ptr noundef %column_family) #0 {
entry:
  %column_family.addr = alloca ptr, align 8
  %handle = alloca ptr, align 8
  %cfd = alloca ptr, align 8
  %ioptions = alloca ptr, align 8
  store ptr %column_family, ptr %column_family.addr, align 8
  %0 = load ptr, ptr %column_family.addr, align 8
  %call = call noundef ptr @_ZN7rocksdb22static_cast_with_checkINS_22ColumnFamilyHandleImplENS_18ColumnFamilyHandleEEEPT_PT0_(ptr noundef %0)
  store ptr %call, ptr %handle, align 8
  %1 = load ptr, ptr %handle, align 8
  %vtable = load ptr, ptr %1, align 8
  %vfn = getelementptr inbounds ptr, ptr %vtable, i64 6
  %2 = load ptr, ptr %vfn, align 8
  %call1 = call noundef ptr %2(ptr noundef nonnull align 8 dereferenceable(32) %1)
  store ptr %call1, ptr %cfd, align 8
  %3 = load ptr, ptr %cfd, align 8
  %call2 = call noundef ptr @_ZNK7rocksdb16ColumnFamilyData8ioptionsEv(ptr noundef nonnull align 8 dereferenceable(2656) %3)
  store ptr %call2, ptr %ioptions, align 8
  %4 = load ptr, ptr %ioptions, align 8
  ret ptr %4
}