; Function Attrs: mustprogress uwtable
define noundef nonnull align 8 dereferenceable(857) ptr @_ZN7rocksdb19GetImmutableOptionsEPNS_18ColumnFamilyHandleE(ptr noundef %column_family) local_unnamed_addr #7 {
entry:
  %vtable = load ptr, ptr %column_family, align 8
  %vfn = getelementptr inbounds i8, ptr %vtable, i64 48
  %0 = load ptr, ptr %vfn, align 8
  %call1 = tail call noundef ptr %0(ptr noundef nonnull align 8 dereferenceable(32) %column_family)
  %ioptions_.i = getelementptr inbounds i8, ptr %call1, i64 928
  ret ptr %ioptions_.i
}